; Function Attrs: nounwind uwtable
define internal fastcc void @mi_vfprintf_thread(ptr noundef %0, ptr noundef %1, ptr noundef nonnull %2) unnamed_addr #1 {
  %4 = alloca [512 x i8], align 16
  %5 = alloca [512 x i8], align 16
  %6 = alloca [64 x i8], align 16
  %.not = icmp eq ptr %0, null
  br i1 %.not, label %25, label %7

7:                                                ; preds = %3
  %8 = tail call i64 @_mi_strnlen(ptr noundef nonnull %0, i64 noundef 33) #16
  %9 = icmp ult i64 %8, 33
  br i1 %9, label %10, label %25

10:                                               ; preds = %7
  %11 = tail call zeroext i1 @_mi_is_main_thread() #16
  br i1 %11, label %25, label %12

12:                                               ; preds = %10
  call void @llvm.lifetime.start.p0(i64 64, ptr nonnull %6) #18
  %13 = tail call i64 @_mi_thread_id() #16
  call void (ptr, i64, ptr, ...) @_mi_snprintf(ptr noundef nonnull %6, i64 noundef 64, ptr noundef nonnull @.str.48, ptr noundef nonnull %0, i64 noundef %13) #16
  call void @llvm.lifetime.start.p0(i64 512, ptr nonnull %5) #18
  %14 = icmp eq ptr %1, null
  br i1 %14, label %mi_vfprintf.exit, label %15

15:                                               ; preds = %12
  %16 = call fastcc noundef zeroext i1 @mi_recurse_enter_prim() #17
  br i1 %16, label %17, label %mi_vfprintf.exit

17:                                               ; preds = %15
  call void @_mi_vsnprintf(ptr noundef nonnull %5, i64 noundef 511, ptr noundef nonnull %1, ptr noundef nonnull %2) #16
  call fastcc void @mi_recurse_exit_prim() #17
  %18 = call fastcc noundef zeroext i1 @mi_recurse_enter_prim() #17
  br i1 %18, label %19, label %mi_vfprintf.exit

19:                                               ; preds = %17
  %20 = load atomic i64, ptr @mi_out_arg acquire, align 8
  %21 = inttoptr i64 %20 to ptr
  %22 = load volatile ptr, ptr @mi_out_default, align 8, !tbaa !6
  %23 = icmp eq ptr %22, null
  %24 = select i1 %23, ptr @mi_out_buf, ptr %22
  call void %24(ptr noundef nonnull %6, ptr noundef %21) #16
  call void %24(ptr noundef nonnull %5, ptr noundef %21) #16
  call fastcc void @mi_recurse_exit_prim() #17
  br label %mi_vfprintf.exit

mi_vfprintf.exit:                                 ; preds = %12, %15, %17, %19
  call void @llvm.lifetime.end.p0(i64 512, ptr nonnull %5) #18
  call void @llvm.lifetime.end.p0(i64 64, ptr nonnull %6) #18
  br label %39

25:                                               ; preds = %10, %7, %3
  call void @llvm.lifetime.start.p0(i64 512, ptr nonnull %4) #18
  %26 = icmp eq ptr %1, null
  br i1 %26, label %mi_vfprintf.exit12, label %27

27:                                               ; preds = %25
  %28 = tail call fastcc noundef zeroext i1 @mi_recurse_enter_prim() #17
  br i1 %28, label %29, label %mi_vfprintf.exit12

29:                                               ; preds = %27
  call void @_mi_vsnprintf(ptr noundef nonnull %4, i64 noundef 511, ptr noundef nonnull %1, ptr noundef nonnull %2) #16
  call fastcc void @mi_recurse_exit_prim() #17
  %30 = call fastcc noundef zeroext i1 @mi_recurse_enter_prim() #17
  br i1 %30, label %31, label %mi_vfprintf.exit12

31:                                               ; preds = %29
  %32 = load atomic i64, ptr @mi_out_arg acquire, align 8
  %33 = inttoptr i64 %32 to ptr
  %34 = load volatile ptr, ptr @mi_out_default, align 8, !tbaa !6
  %35 = icmp eq ptr %34, null
  %36 = select i1 %35, ptr @mi_out_buf, ptr %34
  br i1 %.not, label %38, label %37

37:                                               ; preds = %31
  call void %36(ptr noundef nonnull %0, ptr noundef %33) #16
  br label %38

38:                                               ; preds = %37, %31
  call void %36(ptr noundef nonnull %4, ptr noundef %33) #16
  call fastcc void @mi_recurse_exit_prim() #17
  br label %mi_vfprintf.exit12

mi_vfprintf.exit12:                               ; preds = %25, %27, %29, %38
  call void @llvm.lifetime.end.p0(i64 512, ptr nonnull %4) #18
  br label %39

39:                                               ; preds = %mi_vfprintf.exit12, %mi_vfprintf.exit
  ret void
}